target datalayout = "e-m:e-p270:32:32-p271:32:32-p272:64:64-i64:64-i128:128-f80:128-n8:16:32:64-S128"
target triple = "x86_64-pc-linux-gnu"

%struct.H5VL_connector_prop_t = type { i64, ptr }
%struct.H5F_t = type { ptr, ptr, ptr, ptr, i32, ptr, i8, i8, ptr, i32 }
%struct.H5F_shared_t = type { ptr, ptr, ptr, i8, i32, i32, %struct.H5F_mtab_t, ptr, i8, i8, i64, i32, i32, i64, i64, ptr, ptr, %struct.H5AC_cache_config_t, %struct.H5AC_cache_image_config_t, i8, i8, ptr, i64, i32, i8, i64, i64, double, i64, i64, i64, i32, i32, i32, i8, i32, ptr, ptr, ptr, ptr, i8, i8, i8, i64, i64, ptr, ptr, i32, i64, i8, i32, i8, i64, i8, [13 x i32], [13 x i64], [13 x ptr], i8, i64, i64, [7 x i32], [7 x i32], %struct.H5F_blk_aggr_t, %struct.H5F_blk_aggr_t, i64, i64, %struct.H5F_meta_accum_t, i32, i32, [30 x ptr], %struct.H5F_object_flush_t, i8, ptr }
%struct.H5F_mtab_t = type { i32, i32, ptr }
%struct.H5AC_cache_config_t = type { i32, i8, i8, i8, [1025 x i8], i8, i8, i64, double, i64, i64, i64, i32, double, double, i8, i64, i32, double, double, i32, double, double, i8, i64, i32, i8, double, i64, i32 }
%struct.H5AC_cache_image_config_t = type { i32, i8, i8, i32 }
%struct.H5F_blk_aggr_t = type { i64, i64, i64, i64, i64 }
%struct.H5F_meta_accum_t = type { ptr, i64, i64, i64, i64, i64, i8 }
%struct.H5F_object_flush_t = type { ptr, ptr }

@.str.2 = private unnamed_addr constant [100 x i8] c"generated/home/dtcxzyw/WorkSpace/Projects/compilers/llvm-opt-benchmark/bench/hdf5/hdf5/src/H5Fint.c\00", align 1
@H5E_FILE_g = external global i64, align 8
@H5E_CANTGET_g = external global i64, align 8
@H5E_BADTYPE_g = external global i64, align 8
@H5E_CANTINC_g = external global i64, align 8
@__func__.H5F__set_vol_conn = private unnamed_addr constant [18 x i8] c"H5F__set_vol_conn\00", align 1
@.str.247 = private unnamed_addr constant [46 x i8] c"can't get VOL connector info from API context\00", align 1
@.str.248 = private unnamed_addr constant [23 x i8] c"not a VOL connector ID\00", align 1
@H5E_CANTCOPY_g = external global i64, align 8
@.str.249 = private unnamed_addr constant [27 x i8] c"connector info copy failed\00", align 1
@.str.250 = private unnamed_addr constant [37 x i8] c"incrementing VOL connector ID failed\00", align 1

; Function Attrs: nounwind uwtable
define internal i32 @H5F__set_vol_conn(ptr noundef %0) #0 {
  %2 = alloca ptr, align 8
  %3 = alloca %struct.H5VL_connector_prop_t, align 8
  %4 = alloca ptr, align 8
  %5 = alloca i32, align 4
  %6 = alloca i8, align 1
  store ptr %0, ptr %2, align 8
  store ptr null, ptr %4, align 8
  store i32 0, ptr %5, align 4
  store i8 0, ptr %6, align 1
  %7 = call i32 @H5CX_get_vol_connector_prop(ptr noundef %3)
  %8 = icmp slt i32 %7, 0
  br i1 %8, label %9, label %24

9:                                                ; preds = %1
  br label %10

10:                                               ; preds = %9
  br label %11

11:                                               ; preds = %10
  br label %12

12:                                               ; preds = %11
  %13 = load i64, ptr @H5E_FILE_g, align 8
  %14 = load i64, ptr @H5E_CANTGET_g, align 8
  %15 = call i32 (ptr, ptr, i32, i64, i64, ptr, ...) @H5E_printf_stack(ptr noundef @.str.2, ptr noundef @__func__.H5F__set_vol_conn, i32 noundef 296, i64 noundef %13, i64 noundef %14, ptr noundef @.str.247)
  br label %16

16:                                               ; preds = %12
  store i8 1, ptr %6, align 1
  %17 = load i8, ptr %6, align 1
  %18 = trunc i8 %17 to i1
  %19 = zext i1 %18 to i8
  store i8 %19, ptr %6, align 1
  br label %20

20:                                               ; preds = %16
  br label %21

21:                                               ; preds = %20
  store i32 -1, ptr %5, align 4
  br label %113

22:                                               ; No predecessors!
  br label %23

23:                                               ; preds = %22
  br label %24

24:                                               ; preds = %23, %1
  %25 = getelementptr inbounds %struct.H5VL_connector_prop_t, ptr %3, i32 0, i32 0
  %26 = load i64, ptr %25, align 8
  %27 = call ptr @H5I_object(i64 noundef %26)
  %28 = load ptr, ptr %2, align 8
  %29 = getelementptr inbounds %struct.H5F_t, ptr %28, i32 0, i32 2
  %30 = load ptr, ptr %29, align 8
  %31 = getelementptr inbounds %struct.H5F_shared_t, ptr %30, i32 0, i32 45
  store ptr %27, ptr %31, align 8
  %32 = icmp eq ptr null, %27
  br i1 %32, label %33, label %48

33:                                               ; preds = %24
  br label %34

34:                                               ; preds = %33
  br label %35

35:                                               ; preds = %34
  br label %36

36:                                               ; preds = %35
  %37 = load i64, ptr @H5E_FILE_g, align 8
  %38 = load i64, ptr @H5E_BADTYPE_g, align 8
  %39 = call i32 (ptr, ptr, i32, i64, i64, ptr, ...) @H5E_printf_stack(ptr noundef @.str.2, ptr noundef @__func__.H5F__set_vol_conn, i32 noundef 303, i64 noundef %37, i64 noundef %38, ptr noundef @.str.248)
  br label %40

40:                                               ; preds = %36
  store i8 1, ptr %6, align 1
  %41 = load i8, ptr %6, align 1
  %42 = trunc i8 %41 to i1
  %43 = zext i1 %42 to i8
  store i8 %43, ptr %6, align 1
  br label %44

44:                                               ; preds = %40
  br label %45

45:                                               ; preds = %44
  store i32 -1, ptr %5, align 4
  br label %113

46:                                               ; No predecessors!
  br label %47

47:                                               ; preds = %46
  br label %48

48:                                               ; preds = %47, %24
  %49 = getelementptr inbounds %struct.H5VL_connector_prop_t, ptr %3, i32 0, i32 1
  %50 = load ptr, ptr %49, align 8
  %51 = icmp ne ptr %50, null
  br i1 %51, label %52, label %78

52:                                               ; preds = %48
  %53 = load ptr, ptr %2, align 8
  %54 = getelementptr inbounds %struct.H5F_t, ptr %53, i32 0, i32 2
  %55 = load ptr, ptr %54, align 8
  %56 = getelementptr inbounds %struct.H5F_shared_t, ptr %55, i32 0, i32 45
  %57 = load ptr, ptr %56, align 8
  %58 = getelementptr inbounds %struct.H5VL_connector_prop_t, ptr %3, i32 0, i32 1
  %59 = load ptr, ptr %58, align 8
  %60 = call i32 @H5VL_copy_connector_info(ptr noundef %57, ptr noundef %4, ptr noundef %59)
  %61 = icmp slt i32 %60, 0
  br i1 %61, label %62, label %77

62:                                               ; preds = %52
  br label %63

63:                                               ; preds = %62
  br label %64

64:                                               ; preds = %63
  br label %65

65:                                               ; preds = %64
  %66 = load i64, ptr @H5E_FILE_g, align 8
  %67 = load i64, ptr @H5E_CANTCOPY_g, align 8
  %68 = call i32 (ptr, ptr, i32, i64, i64, ptr, ...) @H5E_printf_stack(ptr noundef @.str.2, ptr noundef @__func__.H5F__set_vol_conn, i32 noundef 309, i64 noundef %66, i64 noundef %67, ptr noundef @.str.249)
  br label %69

69:                                               ; preds = %65
  store i8 1, ptr %6, align 1
  %70 = load i8, ptr %6, align 1
  %71 = trunc i8 %70 to i1
  %72 = zext i1 %71 to i8
  store i8 %72, ptr %6, align 1
  br label %73

73:                                               ; preds = %69
  br label %74

74:                                               ; preds = %73
  store i32 -1, ptr %5, align 4
  br label %113

75:                                               ; No predecessors!
  br label %76

76:                                               ; preds = %75
  br label %77

77:                                               ; preds = %76, %52
  br label %78

78:                                               ; preds = %77, %48
  %79 = getelementptr inbounds %struct.H5VL_connector_prop_t, ptr %3, i32 0, i32 0
  %80 = load i64, ptr %79, align 8
  %81 = load ptr, ptr %2, align 8
  %82 = getelementptr inbounds %struct.H5F_t, ptr %81, i32 0, i32 2
  %83 = load ptr, ptr %82, align 8
  %84 = getelementptr inbounds %struct.H5F_shared_t, ptr %83, i32 0, i32 44
  store i64 %80, ptr %84, align 8
  %85 = load ptr, ptr %4, align 8
  %86 = load ptr, ptr %2, align 8
  %87 = getelementptr inbounds %struct.H5F_t, ptr %86, i32 0, i32 2
  %88 = load ptr, ptr %87, align 8
  %89 = getelementptr inbounds %struct.H5F_shared_t, ptr %88, i32 0, i32 46
  store ptr %85, ptr %89, align 8
  %90 = load ptr, ptr %2, align 8
  %91 = getelementptr inbounds %struct.H5F_t, ptr %90, i32 0, i32 2
  %92 = load ptr, ptr %91, align 8
  %93 = getelementptr inbounds %struct.H5F_shared_t, ptr %92, i32 0, i32 44
  %94 = load i64, ptr %93, align 8
  %95 = call i32 @H5I_inc_ref(i64 noundef %94, i1 noundef zeroext false)
  %96 = icmp slt i32 %95, 0
  br i1 %96, label %97, label %112

97:                                               ; preds = %78
  br label %98

98:                                               ; preds = %97
  br label %99

99:                                               ; preds = %98
  br label %100

100:                                              ; preds = %99
  %101 = load i64, ptr @H5E_FILE_g, align 8
  %102 = load i64, ptr @H5E_CANTINC_g, align 8
  %103 = call i32 (ptr, ptr, i32, i64, i64, ptr, ...) @H5E_printf_stack(ptr noundef @.str.2, ptr noundef @__func__.H5F__set_vol_conn, i32 noundef 315, i64 noundef %101, i64 noundef %102, ptr noundef @.str.250)
  br label %104

104:                                              ; preds = %100
  store i8 1, ptr %6, align 1
  %105 = load i8, ptr %6, align 1
  %106 = trunc i8 %105 to i1
  %107 = zext i1 %106 to i8
  store i8 %107, ptr %6, align 1
  br label %108

108:                                              ; preds = %104
  br label %109

109:                                              ; preds = %108
  store i32 -1, ptr %5, align 4
  br label %113

110:                                              ; No predecessors!
  br label %111

111:                                              ; preds = %110
  br label %112

112:                                              ; preds = %111, %78
  br label %113

113:                                              ; preds = %112, %109, %74, %45, %21
  %114 = load i32, ptr %5, align 4
  ret i32 %114
}