; Function Attrs: nounwind uwtable
define internal fastcc range(i32 -1, 1) i32 @H5F__set_vol_conn(ptr nocapture noundef readonly %0) unnamed_addr #0 {
  %2 = alloca %struct.H5VL_connector_prop_t, align 8
  %3 = alloca ptr, align 8
  store ptr null, ptr %3, align 8
  %4 = call i32 @H5CX_get_vol_connector_prop(ptr noundef nonnull %2) #22
  %5 = icmp slt i32 %4, 0
  br i1 %5, label %6, label %10

6:                                                ; preds = %1
  %7 = load i64, ptr @H5E_FILE_g, align 8
  %8 = load i64, ptr @H5E_CANTGET_g, align 8
  %9 = call i32 (ptr, ptr, i32, i64, i64, ptr, ...) @H5E_printf_stack(ptr noundef nonnull @.str.2, ptr noundef nonnull @__func__.H5F__set_vol_conn, i32 noundef 296, i64 noundef %7, i64 noundef %8, ptr noundef nonnull @.str.247) #22
  br label %50

10:                                               ; preds = %1
  %11 = load i64, ptr %2, align 8
  %12 = call ptr @H5I_object(i64 noundef %11) #22
  %13 = getelementptr inbounds i8, ptr %0, i64 16
  %14 = load ptr, ptr %13, align 8
  %15 = getelementptr inbounds i8, ptr %14, i64 1504
  store ptr %12, ptr %15, align 8
  %16 = icmp eq ptr %12, null
  br i1 %16, label %17, label %21

17:                                               ; preds = %10
  %18 = load i64, ptr @H5E_FILE_g, align 8
  %19 = load i64, ptr @H5E_BADTYPE_g, align 8
  %20 = call i32 (ptr, ptr, i32, i64, i64, ptr, ...) @H5E_printf_stack(ptr noundef nonnull @.str.2, ptr noundef nonnull @__func__.H5F__set_vol_conn, i32 noundef 303, i64 noundef %18, i64 noundef %19, ptr noundef nonnull @.str.248) #22
  br label %50

21:                                               ; preds = %10
  %22 = getelementptr inbounds i8, ptr %2, i64 8
  %23 = load ptr, ptr %22, align 8
  %.not = icmp eq ptr %23, null
  br i1 %.not, label %34, label %24

24:                                               ; preds = %21
  %25 = load ptr, ptr %13, align 8
  %26 = getelementptr inbounds i8, ptr %25, i64 1504
  %27 = load ptr, ptr %26, align 8
  %28 = call i32 @H5VL_copy_connector_info(ptr noundef %27, ptr noundef nonnull %3, ptr noundef nonnull %23) #22
  %29 = icmp slt i32 %28, 0
  br i1 %29, label %30, label %._crit_edge

._crit_edge:                                      ; preds = %24
  %.pre = load ptr, ptr %3, align 8
  br label %34

30:                                               ; preds = %24
  %31 = load i64, ptr @H5E_FILE_g, align 8
  %32 = load i64, ptr @H5E_CANTCOPY_g, align 8
  %33 = call i32 (ptr, ptr, i32, i64, i64, ptr, ...) @H5E_printf_stack(ptr noundef nonnull @.str.2, ptr noundef nonnull @__func__.H5F__set_vol_conn, i32 noundef 309, i64 noundef %31, i64 noundef %32, ptr noundef nonnull @.str.249) #22
  br label %50

34:                                               ; preds = %._crit_edge, %21
  %35 = phi ptr [ %.pre, %._crit_edge ], [ null, %21 ]
  %36 = load i64, ptr %2, align 8
  %37 = load ptr, ptr %13, align 8
  %38 = getelementptr inbounds i8, ptr %37, i64 1496
  store i64 %36, ptr %38, align 8
  %39 = load ptr, ptr %13, align 8
  %40 = getelementptr inbounds i8, ptr %39, i64 1512
  store ptr %35, ptr %40, align 8
  %41 = load ptr, ptr %13, align 8
  %42 = getelementptr inbounds i8, ptr %41, i64 1496
  %43 = load i64, ptr %42, align 8
  %44 = call i32 @H5I_inc_ref(i64 noundef %43, i1 noundef zeroext false) #22
  %45 = icmp slt i32 %44, 0
  br i1 %45, label %46, label %50

46:                                               ; preds = %34
  %47 = load i64, ptr @H5E_FILE_g, align 8
  %48 = load i64, ptr @H5E_CANTINC_g, align 8
  %49 = call i32 (ptr, ptr, i32, i64, i64, ptr, ...) @H5E_printf_stack(ptr noundef nonnull @.str.2, ptr noundef nonnull @__func__.H5F__set_vol_conn, i32 noundef 315, i64 noundef %47, i64 noundef %48, ptr noundef nonnull @.str.250) #22
  br label %50

50:                                               ; preds = %34, %46, %30, %17, %6
  %.0 = phi i32 [ -1, %6 ], [ -1, %17 ], [ -1, %30 ], [ -1, %46 ], [ 0, %34 ]
  ret i32 %.0
}